; Function Attrs: nofree norecurse nosync nounwind sspstrong memory(read, argmem: readwrite, inaccessiblemem: none) uwtable
define internal void @rand_mt_get_bytes(ptr noundef %0, ptr noundef writeonly captures(none) %1, i64 noundef %2) #3 {
  %4 = icmp ugt i64 %2, 3
  br i1 %4, label %.lr.ph.i.preheader, label %._crit_edge.i

.lr.ph.i.preheader:                               ; preds = %3
  %5 = getelementptr inbounds nuw i8, ptr %0, i64 8
  br label %.lr.ph.i

.lr.ph.i:                                         ; preds = %.lr.ph.i.preheader, %12
  %.01623.i = phi ptr [ %9, %12 ], [ %1, %.lr.ph.i.preheader ]
  %.01822.i = phi i64 [ %13, %12 ], [ %2, %.lr.ph.i.preheader ]
  %6 = tail call fastcc i32 @genrand_int32(ptr noundef nonnull %5)
  br label %7

7:                                                ; preds = %7, %.lr.ph.i
  %.117.i = phi ptr [ %.01623.i, %.lr.ph.i ], [ %9, %7 ]
  %.015.i = phi i32 [ %6, %.lr.ph.i ], [ %10, %7 ]
  %.0.i = phi i32 [ 4, %.lr.ph.i ], [ %11, %7 ]
  %8 = trunc i32 %.015.i to i8
  %9 = getelementptr i8, ptr %.117.i, i64 1
  store i8 %8, ptr %.117.i, align 1, !tbaa !53
  %10 = lshr i32 %.015.i, 8
  %11 = add nsw i32 %.0.i, -1
  %.not21.i = icmp eq i32 %11, 0
  br i1 %.not21.i, label %12, label %7, !llvm.loop !54

12:                                               ; preds = %7
  %13 = add i64 %.01822.i, -4
  %14 = icmp ugt i64 %13, 3
  br i1 %14, label %.lr.ph.i, label %._crit_edge.i, !llvm.loop !55

._crit_edge.i:                                    ; preds = %12, %3
  %.018.lcssa.i = phi i64 [ %2, %3 ], [ %13, %12 ]
  %.016.lcssa.i = phi ptr [ %1, %3 ], [ %9, %12 ]
  %.not.i = icmp eq i64 %.018.lcssa.i, 0
  br i1 %.not.i, label %rb_rand_bytes_int32.exit, label %15

15:                                               ; preds = %._crit_edge.i
  %16 = getelementptr inbounds nuw i8, ptr %0, i64 8
  %17 = tail call fastcc i32 @genrand_int32(ptr noundef nonnull %16)
  br label %18

18:                                               ; preds = %18, %15
  %.119.i = phi i64 [ %.018.lcssa.i, %15 ], [ %22, %18 ]
  %.2.i = phi ptr [ %.016.lcssa.i, %15 ], [ %20, %18 ]
  %.1.i = phi i32 [ %17, %15 ], [ %21, %18 ]
  %19 = trunc i32 %.1.i to i8
  %20 = getelementptr i8, ptr %.2.i, i64 1
  store i8 %19, ptr %.2.i, align 1, !tbaa !53
  %21 = lshr i32 %.1.i, 8
  %22 = add i64 %.119.i, -1
  %.not20.i = icmp eq i64 %22, 0
  br i1 %.not20.i, label %rb_rand_bytes_int32.exit, label %18, !llvm.loop !56

rb_rand_bytes_int32.exit:                         ; preds = %18, %._crit_edge.i
  ret void
}